; Function Attrs: mustprogress nounwind uwtable
define internal fastcc void @_ZN12_GLOBAL__N_114CallbackObjectD2Ev(ptr nocapture noundef nonnull readonly align 8 dereferenceable(64) %0) unnamed_addr #4 align 2 personality ptr @__gxx_personality_v0 {
  %2 = getelementptr inbounds i8, ptr %0, i64 40
  %3 = load ptr, ptr %2, align 8
  %4 = getelementptr inbounds i8, ptr %0, i64 48
  %5 = load ptr, ptr %4, align 8
  %.not4.i.i.i.i = icmp eq ptr %3, %5
  br i1 %.not4.i.i.i.i, label %_ZSt8_DestroyIPN3ade6HandleINS0_4NodeEEES3_EvT_S5_RSaIT0_E.exit.i, label %.lr.ph.i.i.i.i

.lr.ph.i.i.i.i:                                   ; preds = %1, %_ZSt8_DestroyIN3ade6HandleINS0_4NodeEEEEvPT_.exit.i.i.i.i
  %.05.i.i.i.i = phi ptr [ %22, %_ZSt8_DestroyIN3ade6HandleINS0_4NodeEEEEvPT_.exit.i.i.i.i ], [ %3, %1 ]
  %6 = getelementptr inbounds i8, ptr %.05.i.i.i.i, i64 8
  %7 = load ptr, ptr %6, align 8
  %.not.i.i.i.i.i.i.i.i.i = icmp eq ptr %7, null
  br i1 %.not.i.i.i.i.i.i.i.i.i, label %_ZSt8_DestroyIN3ade6HandleINS0_4NodeEEEEvPT_.exit.i.i.i.i, label %8

8:                                                ; preds = %.lr.ph.i.i.i.i
  %9 = getelementptr inbounds i8, ptr %7, i64 12
  %10 = load i8, ptr @__libc_single_threaded, align 1
  %.not.i.i.i.i.i.i.i.i.i.i = icmp eq i8 %10, 0
  br i1 %.not.i.i.i.i.i.i.i.i.i.i, label %14, label %11

11:                                               ; preds = %8
  %12 = load i32, ptr %9, align 4
  %13 = add nsw i32 %12, -1
  store i32 %13, ptr %9, align 4
  br label %16

14:                                               ; preds = %8
  %15 = atomicrmw volatile add ptr %9, i32 -1 acq_rel, align 4
  br label %16

16:                                               ; preds = %14, %11
  %.0.i.i.i.i.i.i.i.i.i.i = phi i32 [ %12, %11 ], [ %15, %14 ]
  %17 = icmp eq i32 %.0.i.i.i.i.i.i.i.i.i.i, 1
  br i1 %17, label %18, label %_ZSt8_DestroyIN3ade6HandleINS0_4NodeEEEEvPT_.exit.i.i.i.i

18:                                               ; preds = %16
  %19 = load ptr, ptr %7, align 8
  %20 = getelementptr inbounds i8, ptr %19, i64 24
  %21 = load ptr, ptr %20, align 8
  tail call void %21(ptr noundef nonnull align 8 dereferenceable(16) %7) #19
  br label %_ZSt8_DestroyIN3ade6HandleINS0_4NodeEEEEvPT_.exit.i.i.i.i

_ZSt8_DestroyIN3ade6HandleINS0_4NodeEEEEvPT_.exit.i.i.i.i: ; preds = %18, %16, %.lr.ph.i.i.i.i
  %22 = getelementptr inbounds i8, ptr %.05.i.i.i.i, i64 16
  %.not.i.i.i.i = icmp eq ptr %22, %5
  br i1 %.not.i.i.i.i, label %_ZSt8_DestroyIPN3ade6HandleINS0_4NodeEEES3_EvT_S5_RSaIT0_E.exitthread-pre-split.i, label %.lr.ph.i.i.i.i, !llvm.loop !274

_ZSt8_DestroyIPN3ade6HandleINS0_4NodeEEES3_EvT_S5_RSaIT0_E.exitthread-pre-split.i: ; preds = %_ZSt8_DestroyIN3ade6HandleINS0_4NodeEEEEvPT_.exit.i.i.i.i
  %.pr.i = load ptr, ptr %2, align 8
  br label %_ZSt8_DestroyIPN3ade6HandleINS0_4NodeEEES3_EvT_S5_RSaIT0_E.exit.i

_ZSt8_DestroyIPN3ade6HandleINS0_4NodeEEES3_EvT_S5_RSaIT0_E.exit.i: ; preds = %_ZSt8_DestroyIPN3ade6HandleINS0_4NodeEEES3_EvT_S5_RSaIT0_E.exitthread-pre-split.i, %1
  %23 = phi ptr [ %.pr.i, %_ZSt8_DestroyIPN3ade6HandleINS0_4NodeEEES3_EvT_S5_RSaIT0_E.exitthread-pre-split.i ], [ %3, %1 ]
  %.not.i.i.i = icmp eq ptr %23, null
  br i1 %.not.i.i.i, label %_ZNSt6vectorIN3ade6HandleINS0_4NodeEEESaIS3_EED2Ev.exit, label %24

24:                                               ; preds = %_ZSt8_DestroyIPN3ade6HandleINS0_4NodeEEES3_EvT_S5_RSaIT0_E.exit.i
  tail call void @_ZdlPv(ptr noundef nonnull %23) #21
  br label %_ZNSt6vectorIN3ade6HandleINS0_4NodeEEESaIS3_EED2Ev.exit

_ZNSt6vectorIN3ade6HandleINS0_4NodeEEESaIS3_EED2Ev.exit: ; preds = %_ZSt8_DestroyIPN3ade6HandleINS0_4NodeEEES3_EvT_S5_RSaIT0_E.exit.i, %24
  %25 = getelementptr inbounds i8, ptr %0, i64 16
  %26 = load ptr, ptr %25, align 8
  %27 = getelementptr inbounds i8, ptr %0, i64 24
  %28 = load ptr, ptr %27, align 8
  %.not4.i.i.i.i1 = icmp eq ptr %26, %28
  br i1 %.not4.i.i.i.i1, label %_ZSt8_DestroyIPN3ade6HandleINS0_4NodeEEES3_EvT_S5_RSaIT0_E.exit.i11, label %.lr.ph.i.i.i.i2

.lr.ph.i.i.i.i2:                                  ; preds = %_ZNSt6vectorIN3ade6HandleINS0_4NodeEEESaIS3_EED2Ev.exit, %_ZSt8_DestroyIN3ade6HandleINS0_4NodeEEEEvPT_.exit.i.i.i.i7
  %.05.i.i.i.i3 = phi ptr [ %45, %_ZSt8_DestroyIN3ade6HandleINS0_4NodeEEEEvPT_.exit.i.i.i.i7 ], [ %26, %_ZNSt6vectorIN3ade6HandleINS0_4NodeEEESaIS3_EED2Ev.exit ]
  %29 = getelementptr inbounds i8, ptr %.05.i.i.i.i3, i64 8
  %30 = load ptr, ptr %29, align 8
  %.not.i.i.i.i.i.i.i.i.i4 = icmp eq ptr %30, null
  br i1 %.not.i.i.i.i.i.i.i.i.i4, label %_ZSt8_DestroyIN3ade6HandleINS0_4NodeEEEEvPT_.exit.i.i.i.i7, label %31

31:                                               ; preds = %.lr.ph.i.i.i.i2
  %32 = getelementptr inbounds i8, ptr %30, i64 12
  %33 = load i8, ptr @__libc_single_threaded, align 1
  %.not.i.i.i.i.i.i.i.i.i.i5 = icmp eq i8 %33, 0
  br i1 %.not.i.i.i.i.i.i.i.i.i.i5, label %37, label %34

34:                                               ; preds = %31
  %35 = load i32, ptr %32, align 4
  %36 = add nsw i32 %35, -1
  store i32 %36, ptr %32, align 4
  br label %39

37:                                               ; preds = %31
  %38 = atomicrmw volatile add ptr %32, i32 -1 acq_rel, align 4
  br label %39

39:                                               ; preds = %37, %34
  %.0.i.i.i.i.i.i.i.i.i.i6 = phi i32 [ %35, %34 ], [ %38, %37 ]
  %40 = icmp eq i32 %.0.i.i.i.i.i.i.i.i.i.i6, 1
  br i1 %40, label %41, label %_ZSt8_DestroyIN3ade6HandleINS0_4NodeEEEEvPT_.exit.i.i.i.i7

41:                                               ; preds = %39
  %42 = load ptr, ptr %30, align 8
  %43 = getelementptr inbounds i8, ptr %42, i64 24
  %44 = load ptr, ptr %43, align 8
  tail call void %44(ptr noundef nonnull align 8 dereferenceable(16) %30) #19
  br label %_ZSt8_DestroyIN3ade6HandleINS0_4NodeEEEEvPT_.exit.i.i.i.i7

_ZSt8_DestroyIN3ade6HandleINS0_4NodeEEEEvPT_.exit.i.i.i.i7: ; preds = %41, %39, %.lr.ph.i.i.i.i2
  %45 = getelementptr inbounds i8, ptr %.05.i.i.i.i3, i64 16
  %.not.i.i.i.i8 = icmp eq ptr %45, %28
  br i1 %.not.i.i.i.i8, label %_ZSt8_DestroyIPN3ade6HandleINS0_4NodeEEES3_EvT_S5_RSaIT0_E.exitthread-pre-split.i9, label %.lr.ph.i.i.i.i2, !llvm.loop !274

_ZSt8_DestroyIPN3ade6HandleINS0_4NodeEEES3_EvT_S5_RSaIT0_E.exitthread-pre-split.i9: ; preds = %_ZSt8_DestroyIN3ade6HandleINS0_4NodeEEEEvPT_.exit.i.i.i.i7
  %.pr.i10 = load ptr, ptr %25, align 8
  br label %_ZSt8_DestroyIPN3ade6HandleINS0_4NodeEEES3_EvT_S5_RSaIT0_E.exit.i11

_ZSt8_DestroyIPN3ade6HandleINS0_4NodeEEES3_EvT_S5_RSaIT0_E.exit.i11: ; preds = %_ZSt8_DestroyIPN3ade6HandleINS0_4NodeEEES3_EvT_S5_RSaIT0_E.exitthread-pre-split.i9, %_ZNSt6vectorIN3ade6HandleINS0_4NodeEEESaIS3_EED2Ev.exit
  %46 = phi ptr [ %.pr.i10, %_ZSt8_DestroyIPN3ade6HandleINS0_4NodeEEES3_EvT_S5_RSaIT0_E.exitthread-pre-split.i9 ], [ %26, %_ZNSt6vectorIN3ade6HandleINS0_4NodeEEESaIS3_EED2Ev.exit ]
  %.not.i.i.i12 = icmp eq ptr %46, null
  br i1 %.not.i.i.i12, label %_ZNSt6vectorIN3ade6HandleINS0_4NodeEEESaIS3_EED2Ev.exit13, label %47

47:                                               ; preds = %_ZSt8_DestroyIPN3ade6HandleINS0_4NodeEEES3_EvT_S5_RSaIT0_E.exit.i11
  tail call void @_ZdlPv(ptr noundef nonnull %46) #21
  br label %_ZNSt6vectorIN3ade6HandleINS0_4NodeEEESaIS3_EED2Ev.exit13

_ZNSt6vectorIN3ade6HandleINS0_4NodeEEESaIS3_EED2Ev.exit13: ; preds = %_ZSt8_DestroyIPN3ade6HandleINS0_4NodeEEES3_EvT_S5_RSaIT0_E.exit.i11, %47
  %48 = getelementptr inbounds i8, ptr %0, i64 8
  %49 = load ptr, ptr %48, align 8
  %.not.i.i.i.i14 = icmp eq ptr %49, null
  br i1 %.not.i.i.i.i14, label %_ZN3ade6HandleINS_4NodeEED2Ev.exit, label %50

50:                                               ; preds = %_ZNSt6vectorIN3ade6HandleINS0_4NodeEEESaIS3_EED2Ev.exit13
  %51 = getelementptr inbounds i8, ptr %49, i64 12
  %52 = load i8, ptr @__libc_single_threaded, align 1
  %.not.i.i.i.i.i = icmp eq i8 %52, 0
  br i1 %.not.i.i.i.i.i, label %56, label %53

53:                                               ; preds = %50
  %54 = load i32, ptr %51, align 4
  %55 = add nsw i32 %54, -1
  store i32 %55, ptr %51, align 4
  br label %58

56:                                               ; preds = %50
  %57 = atomicrmw volatile add ptr %51, i32 -1 acq_rel, align 4
  br label %58

58:                                               ; preds = %56, %53
  %.0.i.i.i.i.i = phi i32 [ %54, %53 ], [ %57, %56 ]
  %59 = icmp eq i32 %.0.i.i.i.i.i, 1
  br i1 %59, label %60, label %_ZN3ade6HandleINS_4NodeEED2Ev.exit

60:                                               ; preds = %58
  %61 = load ptr, ptr %49, align 8
  %62 = getelementptr inbounds i8, ptr %61, i64 24
  %63 = load ptr, ptr %62, align 8
  tail call void %63(ptr noundef nonnull align 8 dereferenceable(16) %49) #19
  br label %_ZN3ade6HandleINS_4NodeEED2Ev.exit

_ZN3ade6HandleINS_4NodeEED2Ev.exit:               ; preds = %_ZNSt6vectorIN3ade6HandleINS0_4NodeEEESaIS3_EED2Ev.exit13, %58, %60
  ret void
}